target datalayout = "e-m:e-p270:32:32-p271:32:32-p272:64:64-i64:64-i128:128-f80:128-n8:16:32:64-S128"
target triple = "x86_64-pc-linux-gnu"

%"class.OpenSubdiv::v3_6_0::Far::PatchDescriptor" = type { i32 }
%"class.OpenSubdiv::v3_6_0::Far::PatchTable" = type <{ i32, i32, %"class.std::vector", %"class.std::vector.0", %"class.std::vector.5", %"class.std::vector.10", %"class.std::vector.0", %"class.OpenSubdiv::v3_6_0::Far::PatchTable::StencilTablePtr", %"class.OpenSubdiv::v3_6_0::Far::PatchTable::StencilTablePtr", %"class.OpenSubdiv::v3_6_0::Far::PatchDescriptor", [4 x i8], %"class.std::vector.0", %"class.std::vector.15", %"class.std::vector.20", %"class.std::vector.0", %"class.std::vector.25", i8, [7 x i8] }>
%"class.std::vector" = type { %"struct.std::_Vector_base" }
%"struct.std::_Vector_base" = type { %"struct.std::_Vector_base<OpenSubdiv::v3_6_0::Far::PatchTable::PatchArray, std::allocator<OpenSubdiv::v3_6_0::Far::PatchTable::PatchArray>>::_Vector_impl" }
%"struct.std::_Vector_base<OpenSubdiv::v3_6_0::Far::PatchTable::PatchArray, std::allocator<OpenSubdiv::v3_6_0::Far::PatchTable::PatchArray>>::_Vector_impl" = type { %"struct.std::_Vector_base<OpenSubdiv::v3_6_0::Far::PatchTable::PatchArray, std::allocator<OpenSubdiv::v3_6_0::Far::PatchTable::PatchArray>>::_Vector_impl_data" }
%"struct.std::_Vector_base<OpenSubdiv::v3_6_0::Far::PatchTable::PatchArray, std::allocator<OpenSubdiv::v3_6_0::Far::PatchTable::PatchArray>>::_Vector_impl_data" = type { ptr, ptr, ptr }
%"class.std::vector.5" = type { %"struct.std::_Vector_base.6" }
%"struct.std::_Vector_base.6" = type { %"struct.std::_Vector_base<OpenSubdiv::v3_6_0::Far::PatchParam, std::allocator<OpenSubdiv::v3_6_0::Far::PatchParam>>::_Vector_impl" }
%"struct.std::_Vector_base<OpenSubdiv::v3_6_0::Far::PatchParam, std::allocator<OpenSubdiv::v3_6_0::Far::PatchParam>>::_Vector_impl" = type { %"struct.std::_Vector_base<OpenSubdiv::v3_6_0::Far::PatchParam, std::allocator<OpenSubdiv::v3_6_0::Far::PatchParam>>::_Vector_impl_data" }
%"struct.std::_Vector_base<OpenSubdiv::v3_6_0::Far::PatchParam, std::allocator<OpenSubdiv::v3_6_0::Far::PatchParam>>::_Vector_impl_data" = type { ptr, ptr, ptr }
%"class.std::vector.10" = type { %"struct.std::_Vector_base.11" }
%"struct.std::_Vector_base.11" = type { %"struct.std::_Vector_base<unsigned int, std::allocator<unsigned int>>::_Vector_impl" }
%"struct.std::_Vector_base<unsigned int, std::allocator<unsigned int>>::_Vector_impl" = type { %"struct.std::_Vector_base<unsigned int, std::allocator<unsigned int>>::_Vector_impl_data" }
%"struct.std::_Vector_base<unsigned int, std::allocator<unsigned int>>::_Vector_impl_data" = type { ptr, ptr, ptr }
%"class.OpenSubdiv::v3_6_0::Far::PatchTable::StencilTablePtr" = type { %union.anon }
%union.anon = type { ptr }
%"class.std::vector.15" = type { %"struct.std::_Vector_base.16" }
%"struct.std::_Vector_base.16" = type { %"struct.std::_Vector_base<OpenSubdiv::v3_6_0::Far::PatchTable::FVarPatchChannel, std::allocator<OpenSubdiv::v3_6_0::Far::PatchTable::FVarPatchChannel>>::_Vector_impl" }
%"struct.std::_Vector_base<OpenSubdiv::v3_6_0::Far::PatchTable::FVarPatchChannel, std::allocator<OpenSubdiv::v3_6_0::Far::PatchTable::FVarPatchChannel>>::_Vector_impl" = type { %"struct.std::_Vector_base<OpenSubdiv::v3_6_0::Far::PatchTable::FVarPatchChannel, std::allocator<OpenSubdiv::v3_6_0::Far::PatchTable::FVarPatchChannel>>::_Vector_impl_data" }
%"struct.std::_Vector_base<OpenSubdiv::v3_6_0::Far::PatchTable::FVarPatchChannel, std::allocator<OpenSubdiv::v3_6_0::Far::PatchTable::FVarPatchChannel>>::_Vector_impl_data" = type { ptr, ptr, ptr }
%"class.std::vector.20" = type { %"struct.std::_Vector_base.21" }
%"struct.std::_Vector_base.21" = type { %"struct.std::_Vector_base<OpenSubdiv::v3_6_0::Far::PatchTable::StencilTablePtr, std::allocator<OpenSubdiv::v3_6_0::Far::PatchTable::StencilTablePtr>>::_Vector_impl" }
%"struct.std::_Vector_base<OpenSubdiv::v3_6_0::Far::PatchTable::StencilTablePtr, std::allocator<OpenSubdiv::v3_6_0::Far::PatchTable::StencilTablePtr>>::_Vector_impl" = type { %"struct.std::_Vector_base<OpenSubdiv::v3_6_0::Far::PatchTable::StencilTablePtr, std::allocator<OpenSubdiv::v3_6_0::Far::PatchTable::StencilTablePtr>>::_Vector_impl_data" }
%"struct.std::_Vector_base<OpenSubdiv::v3_6_0::Far::PatchTable::StencilTablePtr, std::allocator<OpenSubdiv::v3_6_0::Far::PatchTable::StencilTablePtr>>::_Vector_impl_data" = type { ptr, ptr, ptr }
%"class.std::vector.0" = type { %"struct.std::_Vector_base.1" }
%"struct.std::_Vector_base.1" = type { %"struct.std::_Vector_base<int, std::allocator<int>>::_Vector_impl" }
%"struct.std::_Vector_base<int, std::allocator<int>>::_Vector_impl" = type { %"struct.std::_Vector_base<int, std::allocator<int>>::_Vector_impl_data" }
%"struct.std::_Vector_base<int, std::allocator<int>>::_Vector_impl_data" = type { ptr, ptr, ptr }
%"class.std::vector.25" = type { %"struct.std::_Vector_base.26" }
%"struct.std::_Vector_base.26" = type { %"struct.std::_Vector_base<float, std::allocator<float>>::_Vector_impl" }
%"struct.std::_Vector_base<float, std::allocator<float>>::_Vector_impl" = type { %"struct.std::_Vector_base<float, std::allocator<float>>::_Vector_impl_data" }
%"struct.std::_Vector_base<float, std::allocator<float>>::_Vector_impl_data" = type { ptr, ptr, ptr }
%"class.OpenSubdiv::v3_6_0::Far::PatchTable::PatchHandle" = type { i32, i32, i32 }
%"struct.OpenSubdiv::v3_6_0::Far::PatchTable::PatchArray" = type { %"class.OpenSubdiv::v3_6_0::Far::PatchDescriptor", i32, i32, i32, i32 }

; Function Attrs: mustprogress nounwind uwtable
define linkonce_odr noundef i32 @_ZNK10OpenSubdiv6v3_6_03Far15PatchDescriptor7GetTypeEv(ptr noundef nonnull align 4 dereferenceable(4) %0) #5 comdat align 2 {
  %2 = alloca ptr, align 8
  store ptr %0, ptr %2, align 8
  %3 = load ptr, ptr %2, align 8
  %4 = getelementptr inbounds nuw %"class.OpenSubdiv::v3_6_0::Far::PatchDescriptor", ptr %3, i32 0, i32 0
  %5 = load i32, ptr %4, align 4
  ret i32 %5
}

; Function Attrs: mustprogress nounwind uwtable
define linkonce_odr noundef nonnull align 4 dereferenceable(20) ptr @_ZNKSt6vectorIN10OpenSubdiv6v3_6_03Far10PatchTable10PatchArrayESaIS4_EEixEm(ptr noundef nonnull align 8 dereferenceable(24) %0, i64 noundef %1) #5 comdat align 2 {
  %3 = alloca ptr, align 8
  %4 = alloca i64, align 8
  store ptr %0, ptr %3, align 8
  store i64 %1, ptr %4, align 8
  %5 = load ptr, ptr %3, align 8
  %6 = getelementptr inbounds nuw %"struct.std::_Vector_base", ptr %5, i32 0, i32 0
  %7 = getelementptr inbounds nuw %"struct.std::_Vector_base<OpenSubdiv::v3_6_0::Far::PatchTable::PatchArray, std::allocator<OpenSubdiv::v3_6_0::Far::PatchTable::PatchArray>>::_Vector_impl_data", ptr %6, i32 0, i32 0
  %8 = load ptr, ptr %7, align 8
  %9 = load i64, ptr %4, align 8
  %10 = getelementptr inbounds %"struct.OpenSubdiv::v3_6_0::Far::PatchTable::PatchArray", ptr %8, i64 %9
  ret ptr %10
}

; Function Attrs: mustprogress nounwind uwtable
define linkonce_odr void @_ZN10OpenSubdiv6v3_6_03Far15PatchDescriptorC2ERKS2_(ptr noundef nonnull align 4 dereferenceable(4) %0, ptr noundef nonnull align 4 dereferenceable(4) %1) unnamed_addr #5 comdat align 2 {
  %3 = alloca ptr, align 8
  %4 = alloca ptr, align 8
  store ptr %0, ptr %3, align 8
  store ptr %1, ptr %4, align 8
  %5 = load ptr, ptr %3, align 8
  %6 = getelementptr inbounds nuw %"class.OpenSubdiv::v3_6_0::Far::PatchDescriptor", ptr %5, i32 0, i32 0
  %7 = load ptr, ptr %4, align 8
  %8 = call noundef i32 @_ZNK10OpenSubdiv6v3_6_03Far15PatchDescriptor7GetTypeEv(ptr noundef nonnull align 4 dereferenceable(4) %7)
  store i32 %8, ptr %6, align 4
  ret void
}

; Function Attrs: mustprogress nounwind uwtable
define linkonce_odr noundef nonnull align 4 dereferenceable(20) ptr @_ZNK10OpenSubdiv6v3_6_03Far10PatchTable13getPatchArrayEi(ptr noundef nonnull align 8 dereferenceable(273) %0, i32 noundef %1) #5 comdat align 2 {
  %3 = alloca ptr, align 8
  %4 = alloca i32, align 4
  store ptr %0, ptr %3, align 8
  store i32 %1, ptr %4, align 4
  %5 = load ptr, ptr %3, align 8
  %6 = getelementptr inbounds nuw %"class.OpenSubdiv::v3_6_0::Far::PatchTable", ptr %5, i32 0, i32 2
  %7 = load i32, ptr %4, align 4
  %8 = sext i32 %7 to i64
  %9 = call noundef nonnull align 4 dereferenceable(20) ptr @_ZNKSt6vectorIN10OpenSubdiv6v3_6_03Far10PatchTable10PatchArrayESaIS4_EEixEm(ptr noundef nonnull align 8 dereferenceable(24) %6, i64 noundef %8) #3
  ret ptr %9
}

; Function Attrs: mustprogress uwtable
define void @_ZNK10OpenSubdiv6v3_6_03Far10PatchTable18GetPatchDescriptorERKNS2_11PatchHandleE(ptr dead_on_unwind noalias writable sret(%"class.OpenSubdiv::v3_6_0::Far::PatchDescriptor") align 4 %0, ptr noundef nonnull align 8 dereferenceable(273) %1, ptr noundef nonnull align 4 dereferenceable(12) %2) #4 align 2 {
  %4 = alloca ptr, align 8
  %5 = alloca ptr, align 8
  %6 = alloca ptr, align 8
  store ptr %0, ptr %4, align 8
  store ptr %1, ptr %5, align 8
  store ptr %2, ptr %6, align 8
  %7 = load ptr, ptr %5, align 8
  %8 = load ptr, ptr %6, align 8
  %9 = getelementptr inbounds nuw %"class.OpenSubdiv::v3_6_0::Far::PatchTable::PatchHandle", ptr %8, i32 0, i32 0
  %10 = load i32, ptr %9, align 4
  %11 = call noundef nonnull align 4 dereferenceable(20) ptr @_ZNK10OpenSubdiv6v3_6_03Far10PatchTable13getPatchArrayEi(ptr noundef nonnull align 8 dereferenceable(273) %7, i32 noundef %10)
  %12 = getelementptr inbounds nuw %"struct.OpenSubdiv::v3_6_0::Far::PatchTable::PatchArray", ptr %11, i32 0, i32 0
  call void @_ZN10OpenSubdiv6v3_6_03Far15PatchDescriptorC2ERKS2_(ptr noundef nonnull align 4 dereferenceable(4) %0, ptr noundef nonnull align 4 dereferenceable(4) %12)
  ret void
}