; Function Attrs: mustprogress nofree norecurse nosync nounwind willreturn memory(read, argmem: readwrite, inaccessiblemem: none) uwtable
define void @_ZNK10OpenSubdiv6v3_6_03Far10PatchTable18GetPatchDescriptorERKNS2_11PatchHandleE(ptr dead_on_unwind noalias nocapture writable writeonly sret(%"class.OpenSubdiv::v3_6_0::Far::PatchDescriptor") align 4 %0, ptr nocapture noundef nonnull readonly align 8 dereferenceable(273) %1, ptr nocapture noundef nonnull readonly align 4 dereferenceable(12) %2) local_unnamed_addr #4 align 2 {
  %4 = load i32, ptr %2, align 4
  %5 = getelementptr inbounds nuw i8, ptr %1, i64 8
  %6 = sext i32 %4 to i64
  %7 = load ptr, ptr %5, align 8
  %8 = getelementptr inbounds %"struct.OpenSubdiv::v3_6_0::Far::PatchTable::PatchArray", ptr %7, i64 %6
  %9 = load i32, ptr %8, align 4
  store i32 %9, ptr %0, align 4
  ret void
}